; Function Attrs: nounwind uwtable
define ptr @l_Lean_Meta_addUnificationHint___boxed(ptr noundef %0, ptr noundef %1, ptr noundef %2, ptr noundef %3, ptr noundef %4, ptr noundef %5, ptr noundef %6) local_unnamed_addr #1 {
  %8 = ptrtoint ptr %1 to i64
  %9 = and i64 %8, 1
  %.not = icmp eq i64 %9, 0
  br i1 %.not, label %10, label %lean_dec.exit

10:                                               ; preds = %7
  %11 = load i32, ptr %1, align 4, !tbaa !4
  %12 = icmp sgt i32 %11, 1
  br i1 %12, label %13, label %15, !prof !11

13:                                               ; preds = %10
  %14 = add nsw i32 %11, -1
  store i32 %14, ptr %1, align 4, !tbaa !4
  br label %lean_dec.exit

15:                                               ; preds = %10
  %.not.i = icmp eq i32 %11, 0
  br i1 %.not.i, label %lean_dec.exit, label %16

16:                                               ; preds = %15
  tail call void @lean_dec_ref_cold(ptr noundef nonnull %1) #6
  br label %lean_dec.exit

lean_dec.exit:                                    ; preds = %16, %15, %13, %7
  tail call void @lean_inc_heartbeat() #6
  %17 = tail call noalias ptr @mi_malloc_small(i64 noundef 40) #6
  %18 = icmp eq ptr %17, null
  br i1 %18, label %19, label %l_Lean_Meta_addUnificationHint.exit

19:                                               ; preds = %lean_dec.exit
  tail call void @lean_internal_panic_out_of_memory() #7
  unreachable

l_Lean_Meta_addUnificationHint.exit:              ; preds = %lean_dec.exit
  %20 = and i64 %8, 510
  %21 = or disjoint i64 %20, 1
  %22 = inttoptr i64 %21 to ptr
  %23 = getelementptr inbounds nuw i8, ptr %17, i64 4
  store i32 1, ptr %17, align 4, !tbaa !4
  store i32 -184549336, ptr %23, align 4
  %24 = getelementptr inbounds nuw i8, ptr %17, i64 8
  store ptr @l_Lean_Meta_addUnificationHint___lambda__1___boxed, ptr %24, align 8, !tbaa !9
  %25 = getelementptr inbounds nuw i8, ptr %17, i64 16
  store i16 7, ptr %25, align 8, !tbaa !17
  %26 = getelementptr inbounds nuw i8, ptr %17, i64 18
  store i16 2, ptr %26, align 2, !tbaa !17
  %27 = getelementptr inbounds nuw i8, ptr %17, i64 24
  store ptr %0, ptr %27, align 8, !tbaa !9
  %28 = getelementptr inbounds nuw i8, ptr %17, i64 32
  store ptr %22, ptr %28, align 8, !tbaa !9
  %29 = tail call ptr @l_Lean_Meta_withNewMCtxDepth___at_Lean_Meta_matchesInstance___spec__1___rarg(ptr noundef nonnull %17, i8 noundef zeroext 0, ptr noundef %2, ptr noundef %3, ptr noundef %4, ptr noundef %5, ptr noundef %6) #6
  ret ptr %29
}